Archive member included because of file (symbol)

../lib/libbufio.a(iolib.o)    main.o (io_init)
../lib/libbufio.a(iobuffer.o)
                              ../lib/libbufio.a(iolib.o) (iobuf_init)
../lib/libbwio.a(bwio.o)      ../lib/libbufio.a(iolib.o) (bwsetfifo)
/u/wbcowan/gnuarm-4.0.2/lib/gcc/arm-elf/4.0.2/libgcc.a(_udivsi3.o)
                              ../lib/libbwio.a(bwio.o) (__udivsi3)
/u/wbcowan/gnuarm-4.0.2/lib/gcc/arm-elf/4.0.2/libgcc.a(_umodsi3.o)
                              ../lib/libbwio.a(bwio.o) (__umodsi3)
/u/wbcowan/gnuarm-4.0.2/lib/gcc/arm-elf/4.0.2/libgcc.a(_dvmd_tls.o)
                              /u/wbcowan/gnuarm-4.0.2/lib/gcc/arm-elf/4.0.2/libgcc.a(_udivsi3.o) (__div0)

Memory Configuration

Name             Origin             Length             Attributes
ram              0x0000000000000000 0x0000000002000000
rom              0x0000000060000000 0x0000000000800000
*default*        0x0000000000000000 0xffffffffffffffff

Linker script and memory map


data            0x0000000000000000        0x0
                0x0000000000000000                _DataStart = .
 *(.data)
                0x0000000000000000                _DataEnd = .

bss             0x0000000000000000       0xe0
                0x0000000000000000                _BssStart = .
 *(.bss)
 .bss           0x0000000000000000       0xe0 ../lib/libbufio.a(iolib.o)
                0x00000000000000e0                _BssEnd = .

text            0x00000000000000e0     0x13ec
 *(.text)
 .text          0x00000000000000e0      0x1a4 main.o
                0x00000000000000e0                main
 .text          0x0000000000000284      0x1e4 ../lib/libbufio.a(iolib.o)
                0x0000000000000284                io_init
                0x0000000000000388                io_poll
                0x0000000000000318                putc
 .text          0x0000000000000468      0x1ec ../lib/libbufio.a(iobuffer.o)
                0x00000000000004bc                iobuf_init
                0x00000000000005c0                iobuf_store
                0x0000000000000530                iobuf_get
                0x0000000000000500                iobuf_empty
 .text          0x0000000000000654      0xc54 ../lib/libbwio.a(bwio.o)
                0x00000000000009cc                bwputr
                0x0000000000000f38                bwi2a
                0x0000000000000654                bwsetfifo
                0x0000000000000828                bwputc
                0x0000000000000c88                bwa2d
                0x000000000000071c                bwsetspeed
                0x00000000000008ec                c2x
                0x0000000000000d30                bwa2i
                0x0000000000000bd0                bwgetc
                0x0000000000000df4                bwui2a
                0x0000000000000f9c                bwformat
                0x0000000000000ac8                bwputw
                0x0000000000001270                bwprintf
                0x000000000000094c                bwputx
                0x0000000000000a4c                bwputstr
 .text          0x00000000000012a8      0x110 /u/wbcowan/gnuarm-4.0.2/lib/gcc/arm-elf/4.0.2/libgcc.a(_udivsi3.o)
                0x00000000000012a8                __udivsi3
                0x00000000000013a0                __aeabi_uidivmod
 .text          0x00000000000013b8       0xcc /u/wbcowan/gnuarm-4.0.2/lib/gcc/arm-elf/4.0.2/libgcc.a(_umodsi3.o)
                0x00000000000013b8                __umodsi3
 .text          0x0000000000001484        0x4 /u/wbcowan/gnuarm-4.0.2/lib/gcc/arm-elf/4.0.2/libgcc.a(_dvmd_tls.o)
                0x0000000000001484                __aeabi_ldiv0
                0x0000000000001484                __div0
                0x0000000000001484                __aeabi_idiv0
 *(.got)
 .got           0x0000000000001488        0x8 main.o
 *(.got.plt)
 .got.plt       0x0000000000001490        0xc main.o
                0x0000000000001490                _GLOBAL_OFFSET_TABLE_
 *(.rodata)
 .rodata        0x000000000000149c       0x14 main.o
 .rodata        0x00000000000014b0       0x1c ../lib/libbufio.a(iolib.o)
 *(.glue_7)
 *(.glue_7t)

.rel.dyn
LOAD main.o
LOAD ../lib/libbufio.a
LOAD ../lib/libbwio.a
LOAD ../lib/libstdlib.a
LOAD /u/wbcowan/gnuarm-4.0.2/lib/gcc/arm-elf/4.0.2/libgcc.a
OUTPUT(kernel.elf elf32-littlearm)

.comment        0x0000000000000000       0x48
 .comment       0x0000000000000000       0x12 main.o
 .comment       0x0000000000000012       0x12 ../lib/libbufio.a(iolib.o)
 .comment       0x0000000000000024       0x12 ../lib/libbufio.a(iobuffer.o)
 .comment       0x0000000000000036       0x12 ../lib/libbwio.a(bwio.o)

.debug_line     0x0000000000000000      0x14f
 .debug_line    0x0000000000000000       0x86 /u/wbcowan/gnuarm-4.0.2/lib/gcc/arm-elf/4.0.2/libgcc.a(_udivsi3.o)
 .debug_line    0x0000000000000086       0x6f /u/wbcowan/gnuarm-4.0.2/lib/gcc/arm-elf/4.0.2/libgcc.a(_umodsi3.o)
 .debug_line    0x00000000000000f5       0x5a /u/wbcowan/gnuarm-4.0.2/lib/gcc/arm-elf/4.0.2/libgcc.a(_dvmd_tls.o)

.debug_info     0x0000000000000000      0x153
 .debug_info    0x0000000000000000       0x71 /u/wbcowan/gnuarm-4.0.2/lib/gcc/arm-elf/4.0.2/libgcc.a(_udivsi3.o)
 .debug_info    0x0000000000000071       0x71 /u/wbcowan/gnuarm-4.0.2/lib/gcc/arm-elf/4.0.2/libgcc.a(_umodsi3.o)
 .debug_info    0x00000000000000e2       0x71 /u/wbcowan/gnuarm-4.0.2/lib/gcc/arm-elf/4.0.2/libgcc.a(_dvmd_tls.o)

.debug_abbrev   0x0000000000000000       0x3c
 .debug_abbrev  0x0000000000000000       0x14 /u/wbcowan/gnuarm-4.0.2/lib/gcc/arm-elf/4.0.2/libgcc.a(_udivsi3.o)
 .debug_abbrev  0x0000000000000014       0x14 /u/wbcowan/gnuarm-4.0.2/lib/gcc/arm-elf/4.0.2/libgcc.a(_umodsi3.o)
 .debug_abbrev  0x0000000000000028       0x14 /u/wbcowan/gnuarm-4.0.2/lib/gcc/arm-elf/4.0.2/libgcc.a(_dvmd_tls.o)

.debug_aranges  0x0000000000000000       0x60
 .debug_aranges
                0x0000000000000000       0x20 /u/wbcowan/gnuarm-4.0.2/lib/gcc/arm-elf/4.0.2/libgcc.a(_udivsi3.o)
 .debug_aranges
                0x0000000000000020       0x20 /u/wbcowan/gnuarm-4.0.2/lib/gcc/arm-elf/4.0.2/libgcc.a(_umodsi3.o)
 .debug_aranges
                0x0000000000000040       0x20 /u/wbcowan/gnuarm-4.0.2/lib/gcc/arm-elf/4.0.2/libgcc.a(_dvmd_tls.o)
